; Function Attrs: mustprogress uwtable
define hidden <2 x float> @_ZNK7nanogui9ImageView12pos_to_pixelERKNS_5ArrayIfLm2EEE(ptr noundef nonnull align 8 dereferenceable(272) %0, ptr nocapture noundef nonnull readonly align 4 dereferenceable(8) %1) local_unnamed_addr #0 align 2 {
_ZN7nanogui5ArrayIfLm2EEmIERKS1_.exit:
  %2 = getelementptr inbounds i8, ptr %0, i64 152
  %3 = load i8, ptr %2, align 8
  %4 = and i8 %3, 1
  %.not = icmp eq i8 %4, 0
  %5 = getelementptr inbounds i8, ptr %0, i64 196
  %6 = getelementptr inbounds i8, ptr %0, i64 192
  %7 = load <2 x float>, ptr %1, align 4
  %8 = fadd <2 x float> %7, <float -1.000000e+00, float -1.000000e+00>
  %9 = insertelement <2 x i1> poison, i1 %.not, i64 0
  %10 = shufflevector <2 x i1> %9, <2 x i1> poison, <2 x i32> zeroinitializer
  %11 = select <2 x i1> %10, <2 x float> %7, <2 x float> %8
  %12 = tail call noundef ptr @_ZNK7nanogui6Widget6screenEv(ptr noundef nonnull align 8 dereferenceable(140) %0)
  %13 = getelementptr inbounds i8, ptr %12, i64 248
  %14 = load float, ptr %13, align 8
  %15 = insertelement <2 x float> poison, float %14, i64 0
  %16 = shufflevector <2 x float> %15, <2 x float> poison, <2 x i32> zeroinitializer
  %17 = fmul <2 x float> %16, %11
  %18 = load <2 x float>, ptr %5, align 4
  %19 = fsub <2 x float> %17, %18
  %20 = load float, ptr %6, align 8
  %21 = fdiv float %20, 5.000000e+00
  %exp2f.i = tail call noundef float @exp2f(float %21)
  %22 = insertelement <2 x float> poison, float %exp2f.i, i64 0
  %23 = shufflevector <2 x float> %22, <2 x float> poison, <2 x i32> zeroinitializer
  %24 = fdiv <2 x float> %19, %23
  ret <2 x float> %24
}